(lp0
(lp1
Vaccessori
p2
aVad
p3
aVaddit
p4
aVaddress
p5
aValarm
p6
aValter
p7
aValuminum
p8
aVapart
p9
aVapplic
p10
aVapprov
p11
aVarea
p12
aVassoci
p13
aVattach
p14
aVbackflow
p15
aVbasement
p16
aVbath
p17
aVbathroom
p18
aVbedroom
p19
aVbldg
p20
aVblock
p21
aVboiler
p22
aVbuild
p23
aVbuilder
p24
aVbuildingh
p25
aVbuilt
p26
aVbusi
p27
aVcabinet
p28
aVcarport
p29
aVceil
p30
aVcenter
p31
aVcentral
p32
aVcertif
p33
aVcertifi
p34
aVchang
p35
aVcheck
p36
aVcircuit
p37
aVciti
p38
aVclass
p39
aVcloset
p40
aVclust
p41
aVcode
p42
aVcombin
p43
aVcombo
p44
aVcomm
p45
aVcommerci
p46
aVcomp
p47
aVcompani
p48
aVcomplaint
p49
aVcomplet
p50
aVcompli
p51
aVconcret
p52
aVcond
p53
aVcondit
p54
aVcondo
p55
aVconnect
p56
aVconst
p57
aVconstr
p58
aVconstruct
p59
aVcontract
p60
aVcontractor
p61
aVcontrol
p62
aVconv
p63
aVconvers
p64
aVconvert
p65
aVcool
p66
aVcorp
p67
aVcorpor
p68
aVcounter
p69
aVcounti
p70
aVcover
p71
aVcross
p72
aVcustom
p73
aVdamag
p74
aVdate
p75
aVdeck
p76
aVdemo
p77
aVdemolit
p78
aVdescript
p79
aVdesign
p80
aVdetach
p81
aVdevelop
p82
aVdevic
p83
aVdistrict
p84
aVdoor
p85
aVdrain
p86
aVdriveway
p87
aVduct
p88
aVduplex
p89
aVdwell
p90
aVegress
p91
aVelec
p92
aVelect
p93
aVelectr
p94
aVelev
p95
aVenclosur
p96
aVenergi
p97
aVenforc
p98
aVengin
p99
aVenterpris
p100
aVequip
p101
aVerect
p102
aVexcav
p103
aVexist
p104
aVexpir
p105
aVexterior
p106
aVfamili
p107
aVfeet
p108
aVfenc
p109
aVfile
p110
aVfinal
p111
aVfinish
p112
aVfire
p113
aVfireplac
p114
aVfirst
p115
aVfixtur
p116
aVfloor
p117
aVflorida
p118
aVfoundat
p119
aVframe
p120
aVfront
p121
aVfull
p122
aVfurnac
p123
aVgarag
p124
aVgeneral
p125
aVgenerat
p126
aVgrade
p127
aVground
p128
aVgroup
p129
aVhead
p130
aVheat
p131
aVheater
p132
aVherewith
p133
aVhigh
p134
aVhistor
p135
aVhome
p136
aVhous
p137
aVhvac
p138
aVillumin
p139
aVimprov
p140
aVinclud
p141
aVindustri
p142
aVinsp
p143
aVinspect
p144
aVinstal
p145
aVinterior
p146
aVirrig
p147
aVissu
p148
aVkitchen
p149
aVlandscap
p150
aVletter
p151
aVlevel
p152
aVlicens
p153
aVlight
p154
aVlimit
p155
aVline
p156
aVlive
p157
aVlocat
p158
aVmain
p159
aVmanufactur
p160
aVmaster
p161
aVmech
p162
aVmechan
p163
aVmetal
p164
aVmeter
p165
aVmetro
p166
aVmetropolitan
p167
aVminor
p168
aVmisc
p169
aVmiscellan
p170
aVmobil
p171
aVmodel
p172
aVmount
p173
aVmulti
p174
aVmust
p175
aVname
p176
aVnorth
p177
aVnsfr
p178
aVnumber
p179
aVoccup
p180
aVoffic
p181
aVopen
p182
aVordin
p183
aVoutlet
p184
aVowner
p185
aVpanel
p186
aVpark
p187
aVpartit
p188
aVpatio
p189
aVperm
p190
aVphase
p191
aVphotovolta
p192
aVpipe
p193
aVplan
p194
aVplbg
p195
aVplum
p196
aVplumb
p197
aVpole
p198
aVpool
p199
aVporch
p200
aVpower
p201
aVprivat
p202
aVproduct
p203
aVproperti
p204
aVpropos
p205
aVprotect
p206
aVprovid
p207
aVpublic
p208
aVpump
p209
aVquot
p210
aVrear
p211
aVreloc
p212
aVremodel
p213
aVremov
p214
aVrenov
p215
aVrepair
p216
aVreplac
p217
aVrequir
p218
aVreroof
p219
aVresid
p220
aVresidenti
p221
aVrestaur
p222
aVretail
p223
aVretain
p224
aVreview
p225
aVrevis
p226
aVright
p227
aVroof
p228
aVroom
p229
aVsale
p230
aVscope
p231
aVscreen
p232
aVsecur
p233
aVseptic
p234
aVservic
p235
aVsewer
p236
aVshall
p237
aVshed
p238
aVshingl
p239
aVshop
p240
aVshutter
p241
aVside
p242
aVsidewalk
p243
aVsign
p244
aVsingl
p245
aVsink
p246
aVsite
p247
aVsize
p248
aVslab
p249
aVsmith
p250
aVsolar
p251
aVson
p252
aVsouth
p253
aVspace
p254
aVsplit
p255
aVsprinkler
p256
aVsquar
p257
aVstandard
p258
aVstate
p259
aVstorag
p260
aVstore
p261
aVstori
p262
aVstorm
p263
aVstreet
p264
aVstructur
p265
aVsuit
p266
aVsummari
p267
aVsupplement
p268
aVswim
p269
aVswitch
p270
aVsystem
p271
aVtank
p272
aVtear
p273
aVtemp
p274
aVtemporari
p275
aVtenant
p276
aVtest
p277
aVtile
p278
aVtotal
p279
aVtown
p280
aVtownhous
p281
aVtract
p282
aVtrade
p283
aVtree
p284
aVtype
p285
aVunit
p286
aVupgrad
p287
aVutil
p288
aVvalley
p289
aVvent
p290
aVviolat
p291
aVvoltag
p292
aVwall
p293
aVwast
p294
aVwater
p295
aVwest
p296
aVwindow
p297
aVwire
p298
aVwood
p299
aVyard
p300
aVzone
p301
aa.